target datalayout = "e-m:e-p270:32:32-p271:32:32-p272:64:64-i64:64-i128:128-f80:128-n8:16:32:64-S128"
target triple = "x86_64-pc-linux-gnu"

%struct.GDBState = type { i8, ptr, ptr, ptr, i32, [4096 x i8], i32, i32, i32, ptr, i32, i8, ptr, i32, ptr, ptr, i32, i32, i8 }
%struct.GDBProcess = type { i32, i8, ptr }

; Function Attrs: nounwind sspstrong uwtable
define internal void @gdb_chr_event(ptr noundef %0, i32 noundef %1) #0 {
  %3 = alloca ptr, align 8
  %4 = alloca i32, align 4
  %5 = alloca i32, align 4
  %6 = alloca ptr, align 8
  store ptr %0, ptr %3, align 8
  store i32 %1, ptr %4, align 4
  call void @llvm.lifetime.start.p0(i64 4, ptr %5) #14
  store i32 0, ptr %5, align 4, !annotation !4
  call void @llvm.lifetime.start.p0(i64 8, ptr %6) #14
  %7 = load ptr, ptr %3, align 8
  store ptr %7, ptr %6, align 8
  %8 = load i32, ptr %4, align 4
  switch i32 %8, label %41 [
    i32 1, label %9
  ]

9:                                                ; preds = %2
  store i32 0, ptr %5, align 4
  br label %10

10:                                               ; preds = %28, %9
  %11 = load i32, ptr %5, align 4
  %12 = load ptr, ptr %6, align 8
  %13 = getelementptr inbounds nuw %struct.GDBState, ptr %12, i32 0, i32 13
  %14 = load i32, ptr %13, align 8
  %15 = icmp slt i32 %11, %14
  br i1 %15, label %16, label %31

16:                                               ; preds = %10
  %17 = load i32, ptr %5, align 4
  %18 = icmp ne i32 %17, 0
  %19 = xor i1 %18, true
  %20 = load ptr, ptr %6, align 8
  %21 = getelementptr inbounds nuw %struct.GDBState, ptr %20, i32 0, i32 12
  %22 = load ptr, ptr %21, align 8
  %23 = load i32, ptr %5, align 4
  %24 = sext i32 %23 to i64
  %25 = getelementptr inbounds %struct.GDBProcess, ptr %22, i64 %24
  %26 = getelementptr inbounds nuw %struct.GDBProcess, ptr %25, i32 0, i32 1
  %27 = zext i1 %19 to i8
  store i8 %27, ptr %26, align 4
  br label %28

28:                                               ; preds = %16
  %29 = load i32, ptr %5, align 4
  %30 = add i32 %29, 1
  store i32 %30, ptr %5, align 4
  br label %10, !llvm.loop !11

31:                                               ; preds = %10
  %32 = call ptr @gdb_first_attached_cpu()
  %33 = load ptr, ptr %6, align 8
  %34 = getelementptr inbounds nuw %struct.GDBState, ptr %33, i32 0, i32 1
  store ptr %32, ptr %34, align 8
  %35 = load ptr, ptr %6, align 8
  %36 = getelementptr inbounds nuw %struct.GDBState, ptr %35, i32 0, i32 1
  %37 = load ptr, ptr %36, align 8
  %38 = load ptr, ptr %6, align 8
  %39 = getelementptr inbounds nuw %struct.GDBState, ptr %38, i32 0, i32 2
  store ptr %37, ptr %39, align 8
  %40 = call i32 @vm_stop(i32 noundef 4)
  call void @replay_gdb_attached()
  br label %42

41:                                               ; preds = %2
  br label %42

42:                                               ; preds = %41, %31
  call void @llvm.lifetime.end.p0(i64 8, ptr %6) #14
  call void @llvm.lifetime.end.p0(i64 4, ptr %5) #14
  ret void
}