; Function Attrs: nounwind sspstrong uwtable
define internal void @gdb_chr_event(ptr noundef captures(none) %0, i32 noundef %1) #2 {
  %cond = icmp eq i32 %1, 1
  br i1 %cond, label %.preheader, label %18

.preheader:                                       ; preds = %2
  %3 = getelementptr inbounds nuw i8, ptr %0, i64 4168
  %4 = load i32, ptr %3, align 8
  %5 = icmp sgt i32 %4, 0
  br i1 %5, label %.lr.ph, label %._crit_edge

.lr.ph:                                           ; preds = %.preheader
  %6 = getelementptr inbounds nuw i8, ptr %0, i64 4160
  br label %7

7:                                                ; preds = %.lr.ph, %7
  %indvars.iv = phi i64 [ 0, %.lr.ph ], [ %indvars.iv.next, %7 ]
  %.not = icmp eq i64 %indvars.iv, 0
  %8 = load ptr, ptr %6, align 8
  %9 = getelementptr inbounds nuw %struct.GDBProcess, ptr %8, i64 %indvars.iv, i32 1
  %10 = zext i1 %.not to i8
  store i8 %10, ptr %9, align 4
  %indvars.iv.next = add nuw nsw i64 %indvars.iv, 1
  %11 = load i32, ptr %3, align 8
  %12 = sext i32 %11 to i64
  %13 = icmp slt i64 %indvars.iv.next, %12
  br i1 %13, label %7, label %._crit_edge, !llvm.loop !11

._crit_edge:                                      ; preds = %7, %.preheader
  %14 = tail call ptr @gdb_first_attached_cpu() #16
  %15 = getelementptr inbounds nuw i8, ptr %0, i64 8
  store ptr %14, ptr %15, align 8
  %16 = getelementptr inbounds nuw i8, ptr %0, i64 16
  store ptr %14, ptr %16, align 8
  %17 = tail call i32 @vm_stop(i32 noundef 4) #16
  tail call void @replay_gdb_attached() #16
  br label %18

18:                                               ; preds = %2, %._crit_edge
  ret void
}